(iPlayer
SerializablePlayer
p1
(dp2
S'name'
p3
S'Chilrog'
p4
sS'faction'
p5
S'Protath'
p6
sS'ai'
p7
S'None'
p8
sS'_gamesPlayed'
p9
I20
sS'_gamesLost'
p10
I10
sS'_gamesWon'
p11
I10
sS'type'
p12
S'ComputerAI'
p13
sb.